target datalayout = "e-m:e-p270:32:32-p271:32:32-p272:64:64-i64:64-i128:128-f80:128-n8:16:32:64-S128"
target triple = "x86_64-pc-linux-gnu"

%struct.bpsec_id_t = type { i64, i64 }

; Function Attrs: nounwind null_pointer_is_valid sspstrong uwtable
define i32 @bpsec_id_equal(ptr noundef %0, ptr noundef %1) #7 {
  %3 = alloca ptr, align 8
  %4 = alloca ptr, align 8
  %5 = alloca ptr, align 8
  %6 = alloca ptr, align 8
  store ptr %0, ptr %3, align 8
  store ptr %1, ptr %4, align 8
  call void @llvm.lifetime.start.p0(i64 8, ptr %5) #10
  %7 = load ptr, ptr %3, align 8
  store ptr %7, ptr %5, align 8
  call void @llvm.lifetime.start.p0(i64 8, ptr %6) #10
  %8 = load ptr, ptr %4, align 8
  store ptr %8, ptr %6, align 8
  %9 = load ptr, ptr %5, align 8
  %10 = icmp ne ptr %9, null
  br i1 %10, label %11, label %30

11:                                               ; preds = %2
  %12 = load ptr, ptr %6, align 8
  %13 = icmp ne ptr %12, null
  br i1 %13, label %14, label %30

14:                                               ; preds = %11
  %15 = load ptr, ptr %5, align 8
  %16 = getelementptr inbounds nuw %struct.bpsec_id_t, ptr %15, i32 0, i32 0
  %17 = load i64, ptr %16, align 8
  %18 = load ptr, ptr %6, align 8
  %19 = getelementptr inbounds nuw %struct.bpsec_id_t, ptr %18, i32 0, i32 0
  %20 = load i64, ptr %19, align 8
  %21 = icmp eq i64 %17, %20
  br i1 %21, label %22, label %30

22:                                               ; preds = %14
  %23 = load ptr, ptr %5, align 8
  %24 = getelementptr inbounds nuw %struct.bpsec_id_t, ptr %23, i32 0, i32 1
  %25 = load i64, ptr %24, align 8
  %26 = load ptr, ptr %6, align 8
  %27 = getelementptr inbounds nuw %struct.bpsec_id_t, ptr %26, i32 0, i32 1
  %28 = load i64, ptr %27, align 8
  %29 = icmp eq i64 %25, %28
  br label %30

30:                                               ; preds = %22, %14, %11, %2
  %31 = phi i1 [ false, %14 ], [ false, %11 ], [ false, %2 ], [ %29, %22 ]
  %32 = zext i1 %31 to i32
  call void @llvm.lifetime.end.p0(i64 8, ptr %6) #10
  call void @llvm.lifetime.end.p0(i64 8, ptr %5) #10
  ret i32 %32
}