; Function Attrs: mustprogress nofree norecurse nosync nounwind null_pointer_is_valid sspstrong willreturn memory(argmem: read) uwtable
define range(i32 0, 2) i32 @bpsec_id_equal(ptr noundef readonly captures(address_is_null) %0, ptr noundef readonly captures(address_is_null) %1) #5 {
  %3 = icmp ne ptr %0, null
  %4 = icmp ne ptr %1, null
  %or.cond = and i1 %3, %4
  br i1 %or.cond, label %5, label %16

5:                                                ; preds = %2
  %6 = load i64, ptr %0, align 8
  %7 = load i64, ptr %1, align 8
  %8 = icmp eq i64 %6, %7
  br i1 %8, label %9, label %16

9:                                                ; preds = %5
  %10 = getelementptr inbounds nuw i8, ptr %0, i64 8
  %11 = load i64, ptr %10, align 8
  %12 = getelementptr inbounds nuw i8, ptr %1, i64 8
  %13 = load i64, ptr %12, align 8
  %14 = icmp eq i64 %11, %13
  %15 = zext i1 %14 to i32
  br label %16

16:                                               ; preds = %9, %5, %2
  %17 = phi i32 [ 0, %5 ], [ 0, %2 ], [ %15, %9 ]
  ret i32 %17
}